target datalayout = "e-m:e-p270:32:32-p271:32:32-p272:64:64-i64:64-i128:128-f80:128-n8:16:32:64-S128"
target triple = "x86_64-pc-linux-gnu"

%"class.cvc5::internal::FloatingPoint" = type { %"class.std::unique_ptr" }
%"class.std::unique_ptr" = type { %"struct.std::__uniq_ptr_data" }
%"struct.std::__uniq_ptr_data" = type { %"class.std::__uniq_ptr_impl" }
%"class.std::__uniq_ptr_impl" = type { %"class.std::tuple" }
%"class.std::tuple" = type { %"struct.std::_Tuple_impl" }
%"struct.std::_Tuple_impl" = type { %"struct.std::_Head_base.1" }
%"struct.std::_Head_base.1" = type { ptr }

@_ZN4cvc58internal13FloatingPointC1EPNS0_20FloatingPointLiteralE = hidden unnamed_addr alias void (ptr, ptr), ptr @_ZN4cvc58internal13FloatingPointC2EPNS0_20FloatingPointLiteralE

; Function Attrs: mustprogress uwtable
define hidden void @_ZN4cvc58internal13FloatingPoint7makeInfERKNS0_17FloatingPointSizeEb(ptr dead_on_unwind noalias writable sret(%"class.cvc5::internal::FloatingPoint") align 8 %0, ptr noundef nonnull align 4 dereferenceable(8) %1, i1 noundef zeroext %2) #4 align 2 personality ptr @__gxx_personality_v0 {
  %4 = alloca ptr, align 8
  %5 = alloca ptr, align 8
  %6 = alloca i8, align 1
  %7 = alloca ptr, align 8
  %8 = alloca i32, align 4
  store ptr %0, ptr %4, align 8
  store ptr %1, ptr %5, align 8, !tbaa !3
  %9 = zext i1 %2 to i8
  store i8 %9, ptr %6, align 1, !tbaa !19
  %10 = call noalias noundef nonnull ptr @_Znwm(i64 noundef 64) #18
  %11 = load ptr, ptr %5, align 8, !tbaa !3
  %12 = load i8, ptr %6, align 1, !tbaa !19, !range !21, !noundef !22
  %13 = trunc i8 %12 to i1
  invoke void @_ZN4cvc58internal20FloatingPointLiteralC1ERKNS0_17FloatingPointSizeENS1_16SpecialConstKindEb(ptr noundef nonnull align 8 dereferenceable(64) %10, ptr noundef nonnull align 4 dereferenceable(8) %11, i32 noundef 0, i1 noundef zeroext %13)
          to label %14 unwind label %15

14:                                               ; preds = %3
  call void @_ZN4cvc58internal13FloatingPointC1EPNS0_20FloatingPointLiteralE(ptr noundef nonnull align 8 dereferenceable(8) %0, ptr noundef %10)
  ret void

15:                                               ; preds = %3
  %16 = landingpad { ptr, i32 }
          cleanup
  %17 = extractvalue { ptr, i32 } %16, 0
  store ptr %17, ptr %7, align 8
  %18 = extractvalue { ptr, i32 } %16, 1
  store i32 %18, ptr %8, align 4
  call void @_ZdlPvm(ptr noundef %10, i64 noundef 64) #19
  br label %19

19:                                               ; preds = %15
  %20 = load ptr, ptr %7, align 8
  %21 = load i32, ptr %8, align 4
  %22 = insertvalue { ptr, i32 } poison, ptr %20, 0
  %23 = insertvalue { ptr, i32 } %22, i32 %21, 1
  resume { ptr, i32 } %23
}