; Function Attrs: mustprogress uwtable
define hidden void @_ZN4cvc58internal13FloatingPoint7makeInfERKNS0_17FloatingPointSizeEb(ptr dead_on_unwind noalias writable writeonly sret(%"class.cvc5::internal::FloatingPoint") align 8 captures(none) %0, ptr noundef nonnull align 4 dereferenceable(8) %1, i1 noundef zeroext %2) local_unnamed_addr #3 align 2 personality ptr @__gxx_personality_v0 {
  %4 = tail call noalias noundef nonnull dereferenceable(64) ptr @_Znwm(i64 noundef 64) #17
  invoke void @_ZN4cvc58internal20FloatingPointLiteralC1ERKNS0_17FloatingPointSizeENS1_16SpecialConstKindEb(ptr noundef nonnull align 8 dereferenceable(64) %4, ptr noundef nonnull align 4 dereferenceable(8) %1, i32 noundef 0, i1 noundef zeroext %2)
          to label %5 unwind label %6

5:                                                ; preds = %3
  store ptr %4, ptr %0, align 8, !tbaa !3
  ret void

6:                                                ; preds = %3
  %7 = landingpad { ptr, i32 }
          cleanup
  tail call void @_ZdlPvm(ptr noundef nonnull %4, i64 noundef 64) #18
  resume { ptr, i32 } %7
}